; Function Attrs: mustprogress nounwind uwtable
define hidden void @_ZNK19G1HeapRegionManager11par_iterateEP19G1HeapRegionClosureP19G1HeapRegionClaimerj(ptr nocapture noundef nonnull readonly align 8 dereferenceable(232) %0, ptr noundef %1, ptr nocapture noundef readonly %2, i32 noundef %3) local_unnamed_addr #0 align 2 {
  %5 = getelementptr inbounds i8, ptr %2, i64 4
  %6 = load i32, ptr %5, align 4
  %.not21 = icmp eq i32 %6, 0
  br i1 %.not21, label %._crit_edge, label %.lr.ph

.lr.ph:                                           ; preds = %4
  %7 = getelementptr inbounds i8, ptr %0, i64 24
  %8 = getelementptr inbounds i8, ptr %0, i64 104
  %9 = getelementptr inbounds i8, ptr %2, i64 8
  br label %.backedge

.backedge:                                        ; preds = %.backedge.backedge, %.lr.ph
  %.017 = phi i32 [ 0, %.lr.ph ], [ %.017.be, %.backedge.backedge ]
  %10 = add i32 %.017, %3
  %11 = urem i32 %10, %6
  %12 = zext i32 %11 to i64
  %13 = load ptr, ptr %7, align 8
  %14 = lshr i64 %12, 6
  %15 = getelementptr inbounds i64, ptr %13, i64 %14
  %16 = load volatile i64, ptr %15, align 8
  tail call void asm sideeffect "", "~{memory},~{dirflag},~{fpsr},~{flags}"() #16, !srcloc !11
  %17 = and i64 %12, 63
  %18 = shl nuw i64 1, %17
  %19 = and i64 %18, %16
  %.not = icmp eq i64 %19, 0
  br i1 %.not, label %37, label %20

20:                                               ; preds = %.backedge
  %21 = load ptr, ptr %8, align 8
  %22 = getelementptr inbounds ptr, ptr %21, i64 %12
  %23 = load ptr, ptr %22, align 8
  %24 = load ptr, ptr %9, align 8
  %25 = getelementptr inbounds i32, ptr %24, i64 %12
  %26 = load volatile i32, ptr %25, align 4
  %27 = icmp eq i32 %26, 1
  br i1 %27, label %37, label %28

28:                                               ; preds = %20
  %29 = tail call noundef i32 asm sideeffect "lock cmpxchgl $1,($3)", "={ax},r,{ax},r,~{cc},~{memory},~{dirflag},~{fpsr},~{flags}"(i32 1, i32 0, ptr nonnull %25) #16, !srcloc !29
  %30 = icmp eq i32 %29, 0
  br i1 %30, label %31, label %37

31:                                               ; preds = %28
  %32 = load ptr, ptr %1, align 8
  %33 = load ptr, ptr %32, align 8
  %34 = tail call noundef zeroext i1 %33(ptr noundef nonnull align 8 dereferenceable(9) %1, ptr noundef %23) #16
  %35 = add nuw i32 %.017, 1
  %36 = icmp uge i32 %35, %6
  %or.cond.not = select i1 %34, i1 true, i1 %36
  br i1 %or.cond.not, label %._crit_edge, label %.backedge.backedge

37:                                               ; preds = %28, %20, %.backedge
  %.old = add nuw i32 %.017, 1
  %.old20 = icmp ult i32 %.old, %6
  br i1 %.old20, label %.backedge.backedge, label %._crit_edge

.backedge.backedge:                               ; preds = %37, %31
  %.017.be = phi i32 [ %.old, %37 ], [ %35, %31 ]
  br label %.backedge, !llvm.loop !30

._crit_edge:                                      ; preds = %37, %31, %4
  ret void
}